; Function Attrs: mustprogress nofree norecurse nosync nounwind memory(read, argmem: readwrite, inaccessiblemem: none) uwtable
define void @_Z12extract_binrP5t_biniN3gmx8ArrayRefIfEE(ptr nocapture noundef readonly %0, i32 noundef %1, ptr %2, ptr %3) local_unnamed_addr #3 {
  %5 = ptrtoint ptr %3 to i64
  %6 = ptrtoint ptr %2 to i64
  %7 = sub i64 %5, %6
  %8 = lshr exact i64 %7, 2
  %9 = trunc i64 %8 to i32
  %10 = getelementptr inbounds i8, ptr %0, i64 8
  %11 = load ptr, ptr %10, align 8
  %12 = sext i32 %1 to i64
  %13 = getelementptr inbounds double, ptr %11, i64 %12
  %14 = icmp sgt i32 %9, 0
  br i1 %14, label %.lr.ph.preheader.i, label %_Z12extract_binrP5t_biniiPf.exit

.lr.ph.preheader.i:                               ; preds = %4
  %wide.trip.count.i = and i64 %8, 2147483647
  br label %.lr.ph.i

.lr.ph.i:                                         ; preds = %.lr.ph.i, %.lr.ph.preheader.i
  %indvars.iv.i = phi i64 [ 0, %.lr.ph.preheader.i ], [ %indvars.iv.next.i, %.lr.ph.i ]
  %15 = getelementptr inbounds double, ptr %13, i64 %indvars.iv.i
  %16 = load double, ptr %15, align 8
  %17 = fptrunc double %16 to float
  %18 = getelementptr inbounds float, ptr %2, i64 %indvars.iv.i
  store float %17, ptr %18, align 4
  %indvars.iv.next.i = add nuw nsw i64 %indvars.iv.i, 1
  %exitcond.not.i = icmp eq i64 %indvars.iv.next.i, %wide.trip.count.i
  br i1 %exitcond.not.i, label %_Z12extract_binrP5t_biniiPf.exit, label %.lr.ph.i, !llvm.loop !9

_Z12extract_binrP5t_biniiPf.exit:                 ; preds = %.lr.ph.i, %4
  ret void
}